; Function Attrs: mustprogress nounwind uwtable
define hidden void @_ZN13TemplateTable4inegEv() local_unnamed_addr #0 align 2 {
  tail call void @_ZN13TemplateTable10transitionE8TosStateS0_(i32 noundef 4, i32 noundef 4) #8
  %1 = load ptr, ptr @_ZN13TemplateTable5_masmE, align 8
  %2 = load i8, ptr @PrintInterpreter, align 1
  %3 = trunc i8 %2 to i1
  br i1 %3, label %4, label %_ZN12Disassembler4hookI25InterpreterMacroAssemblerEEPT_PKciS3_.exit

4:                                                ; preds = %0
  tail call void @_ZN12Disassembler5_hookEPKciP14MacroAssembler(ptr noundef nonnull @.str, i32 noundef 1676, ptr noundef %1) #8
  br label %_ZN12Disassembler4hookI25InterpreterMacroAssemblerEEPT_PKciS3_.exit

_ZN12Disassembler4hookI25InterpreterMacroAssemblerEEPT_PKciS3_.exit: ; preds = %0, %4
  tail call void @_ZN9Assembler4neglE8Register(ptr noundef nonnull align 8 dereferenceable(40) %1, i32 0) #8
  ret void
}